target datalayout = "e-m:e-p270:32:32-p271:32:32-p272:64:64-i64:64-i128:128-f80:128-n8:16:32:64-S128"
target triple = "x86_64-pc-linux-gnu"

; Function Attrs: nounwind uwtable
define hidden void @drwav_f32_to_s16(ptr noundef %0, ptr noundef %1, i64 noundef %2) #0 {
  %4 = alloca ptr, align 8
  %5 = alloca ptr, align 8
  %6 = alloca i64, align 8
  %7 = alloca i32, align 4
  %8 = alloca i64, align 8
  %9 = alloca float, align 4
  %10 = alloca float, align 4
  store ptr %0, ptr %4, align 8
  store ptr %1, ptr %5, align 8
  store i64 %2, ptr %6, align 8
  call void @llvm.lifetime.start.p0(i64 4, ptr %7) #21
  call void @llvm.lifetime.start.p0(i64 8, ptr %8) #21
  store i64 0, ptr %8, align 8
  br label %11

11:                                               ; preds = %45, %3
  %12 = load i64, ptr %8, align 8
  %13 = load i64, ptr %6, align 8
  %14 = icmp ult i64 %12, %13
  br i1 %14, label %15, label %48

15:                                               ; preds = %11
  call void @llvm.lifetime.start.p0(i64 4, ptr %9) #21
  %16 = load ptr, ptr %5, align 8
  %17 = load i64, ptr %8, align 8
  %18 = getelementptr inbounds nuw float, ptr %16, i64 %17
  %19 = load float, ptr %18, align 4
  store float %19, ptr %9, align 4
  call void @llvm.lifetime.start.p0(i64 4, ptr %10) #21
  %20 = load float, ptr %9, align 4
  %21 = fcmp olt float %20, -1.000000e+00
  br i1 %21, label %22, label %23

22:                                               ; preds = %15
  br label %31

23:                                               ; preds = %15
  %24 = load float, ptr %9, align 4
  %25 = fcmp ogt float %24, 1.000000e+00
  br i1 %25, label %26, label %27

26:                                               ; preds = %23
  br label %29

27:                                               ; preds = %23
  %28 = load float, ptr %9, align 4
  br label %29

29:                                               ; preds = %27, %26
  %30 = phi float [ 1.000000e+00, %26 ], [ %28, %27 ]
  br label %31

31:                                               ; preds = %29, %22
  %32 = phi float [ -1.000000e+00, %22 ], [ %30, %29 ]
  store float %32, ptr %10, align 4
  %33 = load float, ptr %10, align 4
  %34 = fadd float %33, 1.000000e+00
  store float %34, ptr %10, align 4
  %35 = load float, ptr %10, align 4
  %36 = fmul float %35, 3.276750e+04
  %37 = fptosi float %36 to i32
  store i32 %37, ptr %7, align 4
  %38 = load i32, ptr %7, align 4
  %39 = sub nsw i32 %38, 32768
  store i32 %39, ptr %7, align 4
  %40 = load i32, ptr %7, align 4
  %41 = trunc i32 %40 to i16
  %42 = load ptr, ptr %4, align 8
  %43 = load i64, ptr %8, align 8
  %44 = getelementptr inbounds nuw i16, ptr %42, i64 %43
  store i16 %41, ptr %44, align 2
  call void @llvm.lifetime.end.p0(i64 4, ptr %10) #21
  call void @llvm.lifetime.end.p0(i64 4, ptr %9) #21
  br label %45

45:                                               ; preds = %31
  %46 = load i64, ptr %8, align 8
  %47 = add i64 %46, 1
  store i64 %47, ptr %8, align 8
  br label %11

48:                                               ; preds = %11
  call void @llvm.lifetime.end.p0(i64 8, ptr %8) #21
  call void @llvm.lifetime.end.p0(i64 4, ptr %7) #21
  ret void
}