; Function Attrs: nofree norecurse nosync nounwind memory(argmem: readwrite) uwtable
define hidden void @drwav_f32_to_s16(ptr noundef writeonly captures(none) %0, ptr noundef readonly captures(none) %1, i64 noundef %2) local_unnamed_addr #23 {
  %.not = icmp eq i64 %2, 0
  br i1 %.not, label %._crit_edge, label %.lr.ph

.lr.ph:                                           ; preds = %3, %15
  %.014 = phi i64 [ %18, %15 ], [ 0, %3 ]
  %4 = getelementptr inbounds nuw float, ptr %1, i64 %.014
  %5 = load float, ptr %4, align 4
  %6 = fcmp olt float %5, -1.000000e+00
  br i1 %6, label %15, label %7

7:                                                ; preds = %.lr.ph
  %8 = fcmp ogt float %5, 1.000000e+00
  %9 = select i1 %8, float 1.000000e+00, float %5
  %10 = fadd float %9, 1.000000e+00
  %11 = fmul float %10, 3.276750e+04
  %12 = fptosi float %11 to i32
  %13 = trunc i32 %12 to i16
  %14 = xor i16 %13, -32768
  br label %15

15:                                               ; preds = %.lr.ph, %7
  %16 = phi i16 [ %14, %7 ], [ -32768, %.lr.ph ]
  %17 = getelementptr inbounds nuw i16, ptr %0, i64 %.014
  store i16 %16, ptr %17, align 2
  %18 = add nuw i64 %.014, 1
  %exitcond.not = icmp eq i64 %18, %2
  br i1 %exitcond.not, label %._crit_edge, label %.lr.ph

._crit_edge:                                      ; preds = %15, %3
  ret void
}